target datalayout = "e-m:e-p270:32:32-p271:32:32-p272:64:64-i64:64-i128:128-f80:128-n8:16:32:64-S128"
target triple = "x86_64-pc-linux-gnu"

; Function Attrs: nounwind uwtable
define internal i32 @overlay_apply_node(ptr noundef %0, i32 noundef %1, ptr noundef %2, i32 noundef %3) #0 {
  %5 = alloca i32, align 4
  %6 = alloca ptr, align 8
  %7 = alloca i32, align 4
  %8 = alloca ptr, align 8
  %9 = alloca i32, align 4
  %10 = alloca i32, align 4
  %11 = alloca i32, align 4
  %12 = alloca ptr, align 8
  %13 = alloca ptr, align 8
  %14 = alloca i32, align 4
  %15 = alloca i32, align 4
  %16 = alloca i32, align 4
  %17 = alloca ptr, align 8
  %18 = alloca i32, align 4
  %19 = alloca i32, align 4
  store ptr %0, ptr %6, align 8, !tbaa !3
  store i32 %1, ptr %7, align 4, !tbaa !7
  store ptr %2, ptr %8, align 8, !tbaa !3
  store i32 %3, ptr %9, align 4, !tbaa !7
  call void @llvm.lifetime.start.p0(i64 4, ptr %10) #7
  call void @llvm.lifetime.start.p0(i64 4, ptr %11) #7
  %20 = load ptr, ptr %8, align 8, !tbaa !3
  %21 = load i32, ptr %9, align 4, !tbaa !7
  %22 = call i32 @fdt_first_property_offset(ptr noundef %20, i32 noundef %21)
  store i32 %22, ptr %10, align 4, !tbaa !7
  br label %23

23:                                               ; preds = %53, %4
  %24 = load i32, ptr %10, align 4, !tbaa !7
  %25 = icmp sge i32 %24, 0
  br i1 %25, label %26, label %57

26:                                               ; preds = %23
  call void @llvm.lifetime.start.p0(i64 8, ptr %12) #7
  call void @llvm.lifetime.start.p0(i64 8, ptr %13) #7
  call void @llvm.lifetime.start.p0(i64 4, ptr %14) #7
  call void @llvm.lifetime.start.p0(i64 4, ptr %15) #7
  %27 = load ptr, ptr %8, align 8, !tbaa !3
  %28 = load i32, ptr %10, align 4, !tbaa !7
  %29 = call ptr @fdt_getprop_by_offset(ptr noundef %27, i32 noundef %28, ptr noundef %12, ptr noundef %14)
  store ptr %29, ptr %13, align 8, !tbaa !3
  %30 = load i32, ptr %14, align 4, !tbaa !7
  %31 = icmp eq i32 %30, -1
  br i1 %31, label %32, label %33

32:                                               ; preds = %26
  store i32 -13, ptr %5, align 4
  store i32 1, ptr %16, align 4
  br label %50

33:                                               ; preds = %26
  %34 = load i32, ptr %14, align 4, !tbaa !7
  %35 = icmp slt i32 %34, 0
  br i1 %35, label %36, label %38

36:                                               ; preds = %33
  %37 = load i32, ptr %14, align 4, !tbaa !7
  store i32 %37, ptr %5, align 4
  store i32 1, ptr %16, align 4
  br label %50

38:                                               ; preds = %33
  %39 = load ptr, ptr %6, align 8, !tbaa !3
  %40 = load i32, ptr %7, align 4, !tbaa !7
  %41 = load ptr, ptr %12, align 8, !tbaa !12
  %42 = load ptr, ptr %13, align 8, !tbaa !3
  %43 = load i32, ptr %14, align 4, !tbaa !7
  %44 = call i32 @fdt_setprop(ptr noundef %39, i32 noundef %40, ptr noundef %41, ptr noundef %42, i32 noundef %43)
  store i32 %44, ptr %15, align 4, !tbaa !7
  %45 = load i32, ptr %15, align 4, !tbaa !7
  %46 = icmp ne i32 %45, 0
  br i1 %46, label %47, label %49

47:                                               ; preds = %38
  %48 = load i32, ptr %15, align 4, !tbaa !7
  store i32 %48, ptr %5, align 4
  store i32 1, ptr %16, align 4
  br label %50

49:                                               ; preds = %38
  store i32 0, ptr %16, align 4
  br label %50

50:                                               ; preds = %49, %47, %36, %32
  call void @llvm.lifetime.end.p0(i64 4, ptr %15) #7
  call void @llvm.lifetime.end.p0(i64 4, ptr %14) #7
  call void @llvm.lifetime.end.p0(i64 8, ptr %13) #7
  call void @llvm.lifetime.end.p0(i64 8, ptr %12) #7
  %51 = load i32, ptr %16, align 4
  switch i32 %51, label %107 [
    i32 0, label %52
  ]

52:                                               ; preds = %50
  br label %53

53:                                               ; preds = %52
  %54 = load ptr, ptr %8, align 8, !tbaa !3
  %55 = load i32, ptr %10, align 4, !tbaa !7
  %56 = call i32 @fdt_next_property_offset(ptr noundef %54, i32 noundef %55)
  store i32 %56, ptr %10, align 4, !tbaa !7
  br label %23, !llvm.loop !29

57:                                               ; preds = %23
  %58 = load ptr, ptr %8, align 8, !tbaa !3
  %59 = load i32, ptr %9, align 4, !tbaa !7
  %60 = call i32 @fdt_first_subnode(ptr noundef %58, i32 noundef %59)
  store i32 %60, ptr %11, align 4, !tbaa !7
  br label %61

61:                                               ; preds = %102, %57
  %62 = load i32, ptr %11, align 4, !tbaa !7
  %63 = icmp sge i32 %62, 0
  br i1 %63, label %64, label %106

64:                                               ; preds = %61
  call void @llvm.lifetime.start.p0(i64 8, ptr %17) #7
  %65 = load ptr, ptr %8, align 8, !tbaa !3
  %66 = load i32, ptr %11, align 4, !tbaa !7
  %67 = call ptr @fdt_get_name(ptr noundef %65, i32 noundef %66, ptr noundef null)
  store ptr %67, ptr %17, align 8, !tbaa !12
  call void @llvm.lifetime.start.p0(i64 4, ptr %18) #7
  call void @llvm.lifetime.start.p0(i64 4, ptr %19) #7
  %68 = load ptr, ptr %6, align 8, !tbaa !3
  %69 = load i32, ptr %7, align 4, !tbaa !7
  %70 = load ptr, ptr %17, align 8, !tbaa !12
  %71 = call i32 @fdt_add_subnode(ptr noundef %68, i32 noundef %69, ptr noundef %70)
  store i32 %71, ptr %18, align 4, !tbaa !7
  %72 = load i32, ptr %18, align 4, !tbaa !7
  %73 = icmp eq i32 %72, -2
  br i1 %73, label %74, label %83

74:                                               ; preds = %64
  %75 = load ptr, ptr %6, align 8, !tbaa !3
  %76 = load i32, ptr %7, align 4, !tbaa !7
  %77 = load ptr, ptr %17, align 8, !tbaa !12
  %78 = call i32 @fdt_subnode_offset(ptr noundef %75, i32 noundef %76, ptr noundef %77)
  store i32 %78, ptr %18, align 4, !tbaa !7
  %79 = load i32, ptr %18, align 4, !tbaa !7
  %80 = icmp eq i32 %79, -1
  br i1 %80, label %81, label %82

81:                                               ; preds = %74
  store i32 -13, ptr %5, align 4
  store i32 1, ptr %16, align 4
  br label %99

82:                                               ; preds = %74
  br label %83

83:                                               ; preds = %82, %64
  %84 = load i32, ptr %18, align 4, !tbaa !7
  %85 = icmp slt i32 %84, 0
  br i1 %85, label %86, label %88

86:                                               ; preds = %83
  %87 = load i32, ptr %18, align 4, !tbaa !7
  store i32 %87, ptr %5, align 4
  store i32 1, ptr %16, align 4
  br label %99

88:                                               ; preds = %83
  %89 = load ptr, ptr %6, align 8, !tbaa !3
  %90 = load i32, ptr %18, align 4, !tbaa !7
  %91 = load ptr, ptr %8, align 8, !tbaa !3
  %92 = load i32, ptr %11, align 4, !tbaa !7
  %93 = call i32 @overlay_apply_node(ptr noundef %89, i32 noundef %90, ptr noundef %91, i32 noundef %92)
  store i32 %93, ptr %19, align 4, !tbaa !7
  %94 = load i32, ptr %19, align 4, !tbaa !7
  %95 = icmp ne i32 %94, 0
  br i1 %95, label %96, label %98

96:                                               ; preds = %88
  %97 = load i32, ptr %19, align 4, !tbaa !7
  store i32 %97, ptr %5, align 4
  store i32 1, ptr %16, align 4
  br label %99

98:                                               ; preds = %88
  store i32 0, ptr %16, align 4
  br label %99

99:                                               ; preds = %98, %96, %86, %81
  call void @llvm.lifetime.end.p0(i64 4, ptr %19) #7
  call void @llvm.lifetime.end.p0(i64 4, ptr %18) #7
  call void @llvm.lifetime.end.p0(i64 8, ptr %17) #7
  %100 = load i32, ptr %16, align 4
  switch i32 %100, label %107 [
    i32 0, label %101
  ]

101:                                              ; preds = %99
  br label %102

102:                                              ; preds = %101
  %103 = load ptr, ptr %8, align 8, !tbaa !3
  %104 = load i32, ptr %11, align 4, !tbaa !7
  %105 = call i32 @fdt_next_subnode(ptr noundef %103, i32 noundef %104)
  store i32 %105, ptr %11, align 4, !tbaa !7
  br label %61, !llvm.loop !30

106:                                              ; preds = %61
  store i32 0, ptr %5, align 4
  store i32 1, ptr %16, align 4
  br label %107

107:                                              ; preds = %106, %99, %50
  call void @llvm.lifetime.end.p0(i64 4, ptr %11) #7
  call void @llvm.lifetime.end.p0(i64 4, ptr %10) #7
  %108 = load i32, ptr %5, align 4
  ret i32 %108
}